; ModuleID = '32/1833.c'
source_filename = "32/1833.c"
target datalayout = "e-m:e-p270:32:32-p271:32:32-p272:64:64-i64:64-f80:128-n8:16:32:64-S128"
target triple = "x86_64-pc-linux-gnu"

@.str = private unnamed_addr constant [3 x i8] c"%d\00", align 1
@.str.1 = private unnamed_addr constant [3 x i8] c"%s\00", align 1
@.str.2 = private unnamed_addr constant [2 x i8] c"\0A\00", align 1

; Function Attrs: noinline nounwind uwtable
define dso_local void @main() #0 {
  %1 = alloca i32, align 4
  %2 = alloca i32, align 4
  %3 = alloca i32, align 4
  %4 = alloca [100 x [101 x i8]], align 16
  %5 = alloca [100 x [101 x i8]], align 16
  %6 = alloca [101 x i32], align 16
  %7 = alloca i32, align 4
  %8 = alloca i32, align 4
  %9 = alloca i32, align 4
  %10 = alloca [101 x i8], align 16
  %11 = call i32 (i8*, ...) @__isoc99_scanf(i8* getelementptr inbounds ([3 x i8], [3 x i8]* @.str, i64 0, i64 0), i32* %1)
  %12 = getelementptr inbounds [100 x [101 x i8]], [100 x [101 x i8]]* %4, i64 0, i64 0
  %13 = getelementptr inbounds [101 x i8], [101 x i8]* %12, i64 0, i64 0
  %14 = call i32 (i8*, ...) @__isoc99_scanf(i8* getelementptr inbounds ([3 x i8], [3 x i8]* @.str.1, i64 0, i64 0), i8* %13)
  %15 = getelementptr inbounds [100 x [101 x i8]], [100 x [101 x i8]]* %5, i64 0, i64 0
  %16 = getelementptr inbounds [101 x i8], [101 x i8]* %15, i64 0, i64 0
  %17 = call i32 (i8*, ...) @__isoc99_scanf(i8* getelementptr inbounds ([3 x i8], [3 x i8]* @.str.1, i64 0, i64 0), i8* %16)
  store i32 1, i32* %2, align 4
  br label %18

18:                                               ; preds = %34, %0
  %19 = load i32, i32* %2, align 4
  %20 = load i32, i32* %1, align 4
  %21 = icmp slt i32 %19, %20
  br i1 %21, label %22, label %37

22:                                               ; preds = %18
  %23 = call i32 (i8*, ...) @printf(i8* getelementptr inbounds ([2 x i8], [2 x i8]* @.str.2, i64 0, i64 0))
  %24 = load i32, i32* %2, align 4
  %25 = sext i32 %24 to i64
  %26 = getelementptr inbounds [100 x [101 x i8]], [100 x [101 x i8]]* %4, i64 0, i64 %25
  %27 = getelementptr inbounds [101 x i8], [101 x i8]* %26, i64 0, i64 0
  %28 = call i32 (i8*, ...) @__isoc99_scanf(i8* getelementptr inbounds ([3 x i8], [3 x i8]* @.str.1, i64 0, i64 0), i8* %27)
  %29 = load i32, i32* %2, align 4
  %30 = sext i32 %29 to i64
  %31 = getelementptr inbounds [100 x [101 x i8]], [100 x [101 x i8]]* %5, i64 0, i64 %30
  %32 = getelementptr inbounds [101 x i8], [101 x i8]* %31, i64 0, i64 0
  %33 = call i32 (i8*, ...) @__isoc99_scanf(i8* getelementptr inbounds ([3 x i8], [3 x i8]* @.str.1, i64 0, i64 0), i8* %32)
  br label %34

34:                                               ; preds = %22
  %35 = load i32, i32* %2, align 4
  %36 = add nsw i32 %35, 1
  store i32 %36, i32* %2, align 4
  br label %18

37:                                               ; preds = %18
  store i32 0, i32* %2, align 4
  br label %38

38:                                               ; preds = %202, %37
  %39 = load i32, i32* %2, align 4
  %40 = load i32, i32* %1, align 4
  %41 = icmp slt i32 %39, %40
  br i1 %41, label %42, label %205

42:                                               ; preds = %38
  %43 = load i32, i32* %2, align 4
  %44 = sext i32 %43 to i64
  %45 = getelementptr inbounds [100 x [101 x i8]], [100 x [101 x i8]]* %4, i64 0, i64 %44
  %46 = getelementptr inbounds [101 x i8], [101 x i8]* %45, i64 0, i64 0
  %47 = call i64 @strlen(i8* %46) #3
  %48 = trunc i64 %47 to i32
  store i32 %48, i32* %8, align 4
  %49 = load i32, i32* %2, align 4
  %50 = sext i32 %49 to i64
  %51 = getelementptr inbounds [100 x [101 x i8]], [100 x [101 x i8]]* %5, i64 0, i64 %50
  %52 = getelementptr inbounds [101 x i8], [101 x i8]* %51, i64 0, i64 0
  %53 = call i64 @strlen(i8* %52) #3
  %54 = trunc i64 %53 to i32
  store i32 %54, i32* %9, align 4
  store i32 0, i32* %3, align 4
  br label %55

55:                                               ; preds = %65, %42
  %56 = load i32, i32* %3, align 4
  %57 = load i32, i32* %8, align 4
  %58 = load i32, i32* %9, align 4
  %59 = sub nsw i32 %57, %58
  %60 = icmp slt i32 %56, %59
  br i1 %60, label %61, label %68

61:                                               ; preds = %55
  %62 = load i32, i32* %3, align 4
  %63 = sext i32 %62 to i64
  %64 = getelementptr inbounds [101 x i8], [101 x i8]* %10, i64 0, i64 %63
  store i8 48, i8* %64, align 1
  br label %65

65:                                               ; preds = %61
  %66 = load i32, i32* %3, align 4
  %67 = add nsw i32 %66, 1
  store i32 %67, i32* %3, align 4
  br label %55

68:                                               ; preds = %55
  store i32 1, i32* %3, align 4
  br label %69

69:                                               ; preds = %88, %68
  %70 = load i32, i32* %3, align 4
  %71 = load i32, i32* %9, align 4
  %72 = icmp sle i32 %70, %71
  br i1 %72, label %73, label %91

73:                                               ; preds = %69
  %74 = load i32, i32* %2, align 4
  %75 = sext i32 %74 to i64
  %76 = getelementptr inbounds [100 x [101 x i8]], [100 x [101 x i8]]* %5, i64 0, i64 %75
  %77 = load i32, i32* %9, align 4
  %78 = load i32, i32* %3, align 4
  %79 = sub nsw i32 %77, %78
  %80 = sext i32 %79 to i64
  %81 = getelementptr inbounds [101 x i8], [101 x i8]* %76, i64 0, i64 %80
  %82 = load i8, i8* %81, align 1
  %83 = load i32, i32* %8, align 4
  %84 = load i32, i32* %3, align 4
  %85 = sub nsw i32 %83, %84
  %86 = sext i32 %85 to i64
  %87 = getelementptr inbounds [101 x i8], [101 x i8]* %10, i64 0, i64 %86
  store i8 %82, i8* %87, align 1
  br label %88

88:                                               ; preds = %73
  %89 = load i32, i32* %3, align 4
  %90 = add nsw i32 %89, 1
  store i32 %90, i32* %3, align 4
  br label %69

91:                                               ; preds = %69
  store i32 1, i32* %7, align 4
  br label %92

92:                                               ; preds = %183, %91
  %93 = load i32, i32* %7, align 4
  %94 = load i32, i32* %8, align 4
  %95 = icmp sle i32 %93, %94
  br i1 %95, label %96, label %186

96:                                               ; preds = %92
  %97 = load i32, i32* %2, align 4
  %98 = sext i32 %97 to i64
  %99 = getelementptr inbounds [100 x [101 x i8]], [100 x [101 x i8]]* %4, i64 0, i64 %98
  %100 = load i32, i32* %8, align 4
  %101 = load i32, i32* %7, align 4
  %102 = sub nsw i32 %100, %101
  %103 = sext i32 %102 to i64
  %104 = getelementptr inbounds [101 x i8], [101 x i8]* %99, i64 0, i64 %103
  %105 = load i8, i8* %104, align 1
  %106 = sext i8 %105 to i32
  %107 = load i32, i32* %8, align 4
  %108 = load i32, i32* %7, align 4
  %109 = sub nsw i32 %107, %108
  %110 = sext i32 %109 to i64
  %111 = getelementptr inbounds [101 x i8], [101 x i8]* %10, i64 0, i64 %110
  %112 = load i8, i8* %111, align 1
  %113 = sext i8 %112 to i32
  %114 = icmp sge i32 %106, %113
  br i1 %114, label %115, label %137

115:                                              ; preds = %96
  %116 = load i32, i32* %2, align 4
  %117 = sext i32 %116 to i64
  %118 = getelementptr inbounds [100 x [101 x i8]], [100 x [101 x i8]]* %4, i64 0, i64 %117
  %119 = load i32, i32* %8, align 4
  %120 = load i32, i32* %7, align 4
  %121 = sub nsw i32 %119, %120
  %122 = sext i32 %121 to i64
  %123 = getelementptr inbounds [101 x i8], [101 x i8]* %118, i64 0, i64 %122
  %124 = load i8, i8* %123, align 1
  %125 = sext i8 %124 to i32
  %126 = load i32, i32* %8, align 4
  %127 = load i32, i32* %7, align 4
  %128 = sub nsw i32 %126, %127
  %129 = sext i32 %128 to i64
  %130 = getelementptr inbounds [101 x i8], [101 x i8]* %10, i64 0, i64 %129
  %131 = load i8, i8* %130, align 1
  %132 = sext i8 %131 to i32
  %133 = sub nsw i32 %125, %132
  %134 = load i32, i32* %7, align 4
  %135 = sext i32 %134 to i64
  %136 = getelementptr inbounds [101 x i32], [101 x i32]* %6, i64 0, i64 %135
  store i32 %133, i32* %136, align 4
  br label %182

137:                                              ; preds = %96
  %138 = load i32, i32* %2, align 4
  %139 = sext i32 %138 to i64
  %140 = getelementptr inbounds [100 x [101 x i8]], [100 x [101 x i8]]* %4, i64 0, i64 %139
  %141 = load i32, i32* %8, align 4
  %142 = load i32, i32* %7, align 4
  %143 = sub nsw i32 %141, %142
  %144 = sext i32 %143 to i64
  %145 = getelementptr inbounds [101 x i8], [101 x i8]* %140, i64 0, i64 %144
  %146 = load i8, i8* %145, align 1
  %147 = sext i8 %146 to i32
  %148 = add nsw i32 10, %147
  %149 = load i32, i32* %8, align 4
  %150 = load i32, i32* %7, align 4
  %151 = sub nsw i32 %149, %150
  %152 = sext i32 %151 to i64
  %153 = getelementptr inbounds [101 x i8], [101 x i8]* %10, i64 0, i64 %152
  %154 = load i8, i8* %153, align 1
  %155 = sext i8 %154 to i32
  %156 = sub nsw i32 %148, %155
  %157 = load i32, i32* %7, align 4
  %158 = sext i32 %157 to i64
  %159 = getelementptr inbounds [101 x i32], [101 x i32]* %6, i64 0, i64 %158
  store i32 %156, i32* %159, align 4
  %160 = load i32, i32* %2, align 4
  %161 = sext i32 %160 to i64
  %162 = getelementptr inbounds [100 x [101 x i8]], [100 x [101 x i8]]* %4, i64 0, i64 %161
  %163 = load i32, i32* %8, align 4
  %164 = load i32, i32* %7, align 4
  %165 = sub nsw i32 %163, %164
  %166 = sub nsw i32 %165, 1
  %167 = sext i32 %166 to i64
  %168 = getelementptr inbounds [101 x i8], [101 x i8]* %162, i64 0, i64 %167
  %169 = load i8, i8* %168, align 1
  %170 = sext i8 %169 to i32
  %171 = sub nsw i32 %170, 1
  %172 = trunc i32 %171 to i8
  %173 = load i32, i32* %2, align 4
  %174 = sext i32 %173 to i64
  %175 = getelementptr inbounds [100 x [101 x i8]], [100 x [101 x i8]]* %4, i64 0, i64 %174
  %176 = load i32, i32* %8, align 4
  %177 = load i32, i32* %7, align 4
  %178 = sub nsw i32 %176, %177
  %179 = sub nsw i32 %178, 1
  %180 = sext i32 %179 to i64
  %181 = getelementptr inbounds [101 x i8], [101 x i8]* %175, i64 0, i64 %180
  store i8 %172, i8* %181, align 1
  br label %182

182:                                              ; preds = %137, %115
  br label %183

183:                                              ; preds = %182
  %184 = load i32, i32* %7, align 4
  %185 = add nsw i32 %184, 1
  store i32 %185, i32* %7, align 4
  br label %92

186:                                              ; preds = %92
  %187 = load i32, i32* %8, align 4
  store i32 %187, i32* %7, align 4
  br label %188

188:                                              ; preds = %197, %186
  %189 = load i32, i32* %7, align 4
  %190 = icmp sge i32 %189, 1
  br i1 %190, label %191, label %200

191:                                              ; preds = %188
  %192 = load i32, i32* %7, align 4
  %193 = sext i32 %192 to i64
  %194 = getelementptr inbounds [101 x i32], [101 x i32]* %6, i64 0, i64 %193
  %195 = load i32, i32* %194, align 4
  %196 = call i32 (i8*, ...) @printf(i8* getelementptr inbounds ([3 x i8], [3 x i8]* @.str, i64 0, i64 0), i32 %195)
  br label %197

197:                                              ; preds = %191
  %198 = load i32, i32* %7, align 4
  %199 = add nsw i32 %198, -1
  store i32 %199, i32* %7, align 4
  br label %188

200:                                              ; preds = %188
  %201 = call i32 (i8*, ...) @printf(i8* getelementptr inbounds ([2 x i8], [2 x i8]* @.str.2, i64 0, i64 0))
  br label %202

202:                                              ; preds = %200
  %203 = load i32, i32* %2, align 4
  %204 = add nsw i32 %203, 1
  store i32 %204, i32* %2, align 4
  br label %38

205:                                              ; preds = %38
  ret void
}

declare dso_local i32 @__isoc99_scanf(i8*, ...) #1

declare dso_local i32 @printf(i8*, ...) #1

; Function Attrs: nounwind readonly
declare dso_local i64 @strlen(i8*) #2


!llvm.module.flags = !{!0}
!llvm.ident = !{!1}

!0 = !{i32 1, !"wchar_size", i32 4}
!1 = !{!"clang version 10.0.0-4ubuntu1 "}
